target datalayout = "e-m:e-p270:32:32-p271:32:32-p272:64:64-i64:64-i128:128-f80:128-n8:16:32:64-S128"
target triple = "x86_64-unknown-linux-gnu"

%"class.hermes::vm::PinnedHermesValue" = type { %"class.hermes::vm::HermesValue" }
%"class.hermes::vm::HermesValue" = type { i64 }
%"class.hermes::vm::HandleBase" = type { ptr }
%"class.hermes::vm::CallResult" = type { i32, %"class.hermes::vm::HermesValue" }
%"class.hermes::vm::NativeArgs" = type { %"class.std::reverse_iterator", i32, ptr }
%"class.std::reverse_iterator" = type { ptr }
%"class.hermes::vm::Handle.200" = type { %"class.hermes::vm::HandleBase" }
%"class.hermes::vm::CallResult.201" = type { i16, [2 x i8] }

@_ZN6hermes2vm15HandleRootOwner15undefinedValue_E = external global %"class.hermes::vm::PinnedHermesValue", align 8

; Function Attrs: mustprogress nounwind uwtable
define linkonce_odr hidden void @_ZNSt16reverse_iteratorIPKN6hermes2vm17PinnedHermesValueEEC2ES4_(ptr noundef nonnull align 8 dereferenceable(8) %this, ptr noundef %__x) unnamed_addr #0 comdat align 2 {
entry:
  %this.addr = alloca ptr, align 8
  %__x.addr = alloca ptr, align 8
  store ptr %this, ptr %this.addr, align 8
  store ptr %__x, ptr %__x.addr, align 8
  %this1 = load ptr, ptr %this.addr, align 8
  %current = getelementptr inbounds %"class.std::reverse_iterator", ptr %this1, i32 0, i32 0
  %0 = load ptr, ptr %__x.addr, align 8
  store ptr %0, ptr %current, align 8
  ret void
}

; Function Attrs: mustprogress nounwind uwtable
define linkonce_odr hidden noundef nonnull align 8 dereferenceable(8) ptr @_ZNKSt16reverse_iteratorIPKN6hermes2vm17PinnedHermesValueEEdeEv(ptr noundef nonnull align 8 dereferenceable(8) %this) #0 comdat align 2 {
entry:
  %this.addr = alloca ptr, align 8
  %__tmp = alloca ptr, align 8
  store ptr %this, ptr %this.addr, align 8
  %this1 = load ptr, ptr %this.addr, align 8
  %current = getelementptr inbounds %"class.std::reverse_iterator", ptr %this1, i32 0, i32 0
  %0 = load ptr, ptr %current, align 8
  store ptr %0, ptr %__tmp, align 8
  %1 = load ptr, ptr %__tmp, align 8
  %incdec.ptr = getelementptr inbounds %"class.hermes::vm::PinnedHermesValue", ptr %1, i32 -1
  store ptr %incdec.ptr, ptr %__tmp, align 8
  ret ptr %incdec.ptr
}

; Function Attrs: mustprogress nounwind uwtable
define linkonce_odr hidden void @_ZNKSt16reverse_iteratorIPKN6hermes2vm17PinnedHermesValueEEplEl(ptr noalias sret(%"class.std::reverse_iterator") align 8 %agg.result, ptr noundef nonnull align 8 dereferenceable(8) %this, i64 noundef %__n) #0 comdat align 2 {
entry:
  %result.ptr = alloca ptr, align 8
  %this.addr = alloca ptr, align 8
  %__n.addr = alloca i64, align 8
  store ptr %agg.result, ptr %result.ptr, align 8
  store ptr %this, ptr %this.addr, align 8
  store i64 %__n, ptr %__n.addr, align 8
  %this1 = load ptr, ptr %this.addr, align 8
  %current = getelementptr inbounds %"class.std::reverse_iterator", ptr %this1, i32 0, i32 0
  %0 = load ptr, ptr %current, align 8
  %1 = load i64, ptr %__n.addr, align 8
  %idx.neg = sub i64 0, %1
  %add.ptr = getelementptr inbounds %"class.hermes::vm::PinnedHermesValue", ptr %0, i64 %idx.neg
  call void @_ZNSt16reverse_iteratorIPKN6hermes2vm17PinnedHermesValueEEC2ES4_(ptr noundef nonnull align 8 dereferenceable(8) %agg.result, ptr noundef %add.ptr) #9
  ret void
}

; Function Attrs: mustprogress nounwind uwtable
define linkonce_odr hidden void @_ZNSt16reverse_iteratorIPKN6hermes2vm17PinnedHermesValueEEC2ERKS5_(ptr noundef nonnull align 8 dereferenceable(8) %this, ptr noundef nonnull align 8 dereferenceable(8) %__x) unnamed_addr #0 comdat align 2 {
entry:
  %this.addr = alloca ptr, align 8
  %__x.addr = alloca ptr, align 8
  store ptr %this, ptr %this.addr, align 8
  store ptr %__x, ptr %__x.addr, align 8
  %this1 = load ptr, ptr %this.addr, align 8
  %current = getelementptr inbounds %"class.std::reverse_iterator", ptr %this1, i32 0, i32 0
  %0 = load ptr, ptr %__x.addr, align 8
  %current2 = getelementptr inbounds %"class.std::reverse_iterator", ptr %0, i32 0, i32 0
  %1 = load ptr, ptr %current2, align 8
  store ptr %1, ptr %current, align 8
  ret void
}

; Function Attrs: mustprogress nounwind uwtable
define linkonce_odr hidden void @_ZN6hermes2vm10HandleBaseC2EPKNS0_17PinnedHermesValueE(ptr noundef nonnull align 8 dereferenceable(8) %this, ptr noundef %valueAddr) unnamed_addr #0 comdat align 2 {
entry:
  %this.addr = alloca ptr, align 8
  %valueAddr.addr = alloca ptr, align 8
  store ptr %this, ptr %this.addr, align 8
  store ptr %valueAddr, ptr %valueAddr.addr, align 8
  %this1 = load ptr, ptr %this.addr, align 8
  %handle_ = getelementptr inbounds %"class.hermes::vm::HandleBase", ptr %this1, i32 0, i32 0
  %0 = load ptr, ptr %valueAddr.addr, align 8
  store ptr %0, ptr %handle_, align 8
  ret void
}

; Function Attrs: mustprogress nounwind uwtable
define linkonce_odr hidden void @_ZN6hermes2vm11HermesValueC2EmNS1_4ETagE(ptr noundef nonnull align 8 dereferenceable(8) %this, i64 noundef %val, i64 noundef %etag) unnamed_addr #0 comdat align 2 {
entry:
  %this.addr = alloca ptr, align 8
  %val.addr = alloca i64, align 8
  %etag.addr = alloca i64, align 8
  store ptr %this, ptr %this.addr, align 8
  store i64 %val, ptr %val.addr, align 8
  store i64 %etag, ptr %etag.addr, align 8
  %this1 = load ptr, ptr %this.addr, align 8
  %raw_ = getelementptr inbounds %"class.hermes::vm::HermesValue", ptr %this1, i32 0, i32 0
  %0 = load i64, ptr %val.addr, align 8
  %1 = load i64, ptr %etag.addr, align 8
  %shl = shl i64 %1, 47
  %or = or i64 %0, %shl
  store i64 %or, ptr %raw_, align 8
  ret void
}

; Function Attrs: mustprogress nounwind uwtable
define linkonce_odr hidden noundef zeroext i1 @_ZNK6hermes2vm10CallResultIbLNS0_6detail20CallResultSpecializeE1EE8getValueEv(ptr noundef nonnull align 4 dereferenceable(2) %this) #0 comdat align 2 {
entry:
  %this.addr = alloca ptr, align 8
  store ptr %this, ptr %this.addr, align 8
  %this1 = load ptr, ptr %this.addr, align 8
  %bf.load = load i16, ptr %this1, align 4
  %bf.lshr = lshr i16 %bf.load, 8
  %bf.clear = and i16 %bf.lshr, 1
  %bf.cast = trunc i16 %bf.clear to i1
  ret i1 %bf.cast
}

; Function Attrs: mustprogress nounwind uwtable
define linkonce_odr hidden noundef i32 @_ZNK6hermes2vm10CallResultIbLNS0_6detail20CallResultSpecializeE1EE9getStatusEv(ptr noundef nonnull align 4 dereferenceable(2) %this) #0 comdat align 2 {
entry:
  %this.addr = alloca ptr, align 8
  store ptr %this, ptr %this.addr, align 8
  %this1 = load ptr, ptr %this.addr, align 8
  %bf.load = load i16, ptr %this1, align 4
  %bf.shl = shl i16 %bf.load, 8
  %bf.ashr = ashr i16 %bf.shl, 8
  %bf.cast = sext i16 %bf.ashr to i32
  ret i32 %bf.cast
}

; Function Attrs: mustprogress nounwind uwtable
define linkonce_odr hidden ptr @_ZN6hermes2vm15HandleRootOwner17getUndefinedValueEv() #0 comdat align 2 {
entry:
  %retval = alloca %"class.hermes::vm::Handle.200", align 8
  call void @_ZN6hermes2vm6HandleINS0_11HermesValueEEC2EPKNS0_17PinnedHermesValueE(ptr noundef nonnull align 8 dereferenceable(8) %retval, ptr noundef @_ZN6hermes2vm15HandleRootOwner15undefinedValue_E)
  %coerce.dive = getelementptr inbounds %"class.hermes::vm::Handle.200", ptr %retval, i32 0, i32 0
  %coerce.dive1 = getelementptr inbounds %"class.hermes::vm::HandleBase", ptr %coerce.dive, i32 0, i32 0
  %0 = load ptr, ptr %coerce.dive1, align 8
  ret ptr %0
}

; Function Attrs: mustprogress nounwind uwtable
define linkonce_odr hidden noundef nonnull align 8 dereferenceable(8) ptr @_ZNKSt16reverse_iteratorIPKN6hermes2vm17PinnedHermesValueEEixEl(ptr noundef nonnull align 8 dereferenceable(8) %this, i64 noundef %__n) #0 comdat align 2 {
entry:
  %this.addr = alloca ptr, align 8
  %__n.addr = alloca i64, align 8
  %ref.tmp = alloca %"class.std::reverse_iterator", align 8
  store ptr %this, ptr %this.addr, align 8
  store i64 %__n, ptr %__n.addr, align 8
  %this1 = load ptr, ptr %this.addr, align 8
  %0 = load i64, ptr %__n.addr, align 8
  call void @_ZNKSt16reverse_iteratorIPKN6hermes2vm17PinnedHermesValueEEplEl(ptr sret(%"class.std::reverse_iterator") align 8 %ref.tmp, ptr noundef nonnull align 8 dereferenceable(8) %this1, i64 noundef %0)
  %call = call noundef nonnull align 8 dereferenceable(8) ptr @_ZNKSt16reverse_iteratorIPKN6hermes2vm17PinnedHermesValueEEdeEv(ptr noundef nonnull align 8 dereferenceable(8) %ref.tmp)
  ret ptr %call
}

; Function Attrs: mustprogress nounwind uwtable
define linkonce_odr hidden void @_ZNK6hermes2vm10NativeArgs5beginEv(ptr noalias sret(%"class.std::reverse_iterator") align 8 %agg.result, ptr noundef nonnull align 8 dereferenceable(24) %this) #0 comdat align 2 {
entry:
  %result.ptr = alloca ptr, align 8
  %this.addr = alloca ptr, align 8
  store ptr %agg.result, ptr %result.ptr, align 8
  store ptr %this, ptr %this.addr, align 8
  %this1 = load ptr, ptr %this.addr, align 8
  %firstArg_ = getelementptr inbounds %"class.hermes::vm::NativeArgs", ptr %this1, i32 0, i32 0
  call void @_ZNSt16reverse_iteratorIPKN6hermes2vm17PinnedHermesValueEEC2ERKS5_(ptr noundef nonnull align 8 dereferenceable(8) %agg.result, ptr noundef nonnull align 8 dereferenceable(8) %firstArg_) #9
  ret void
}

; Function Attrs: mustprogress nounwind uwtable
define linkonce_odr hidden void @_ZN6hermes2vm6HandleINS0_11HermesValueEEC2EPKNS0_17PinnedHermesValueE(ptr noundef nonnull align 8 dereferenceable(8) %this, ptr noundef %valueAddr) unnamed_addr #0 comdat align 2 {
entry:
  %this.addr = alloca ptr, align 8
  %valueAddr.addr = alloca ptr, align 8
  store ptr %this, ptr %this.addr, align 8
  store ptr %valueAddr, ptr %valueAddr.addr, align 8
  %this1 = load ptr, ptr %this.addr, align 8
  %0 = load ptr, ptr %valueAddr.addr, align 8
  call void @_ZN6hermes2vm10HandleBaseC2EPKNS0_17PinnedHermesValueE(ptr noundef nonnull align 8 dereferenceable(8) %this1, ptr noundef %0)
  ret void
}

; Function Attrs: mustprogress nounwind uwtable
define linkonce_odr hidden noundef nonnull align 8 dereferenceable(8) ptr @_ZNK6hermes2vm10NativeArgs10getThisArgEv(ptr noundef nonnull align 8 dereferenceable(24) %this) #0 comdat align 2 {
entry:
  %this.addr = alloca ptr, align 8
  %ref.tmp = alloca %"class.std::reverse_iterator", align 8
  store ptr %this, ptr %this.addr, align 8
  %this1 = load ptr, ptr %this.addr, align 8
  call void @_ZNK6hermes2vm10NativeArgs5beginEv(ptr sret(%"class.std::reverse_iterator") align 8 %ref.tmp, ptr noundef nonnull align 8 dereferenceable(24) %this1)
  %call = call noundef nonnull align 8 dereferenceable(8) ptr @_ZNKSt16reverse_iteratorIPKN6hermes2vm17PinnedHermesValueEEixEl(ptr noundef nonnull align 8 dereferenceable(8) %ref.tmp, i64 noundef -1)
  ret ptr %call
}

; Function Attrs: mustprogress nounwind uwtable
define linkonce_odr hidden void @_ZN6hermes2vm10CallResultINS0_11HermesValueELNS0_6detail20CallResultSpecializeE2EEC2ES2_(ptr noundef nonnull align 8 dereferenceable(16) %this, i64 %value.coerce) unnamed_addr #0 comdat align 2 {
entry:
  %value = alloca %"class.hermes::vm::HermesValue", align 8
  %this.addr = alloca ptr, align 8
  %coerce.dive = getelementptr inbounds %"class.hermes::vm::HermesValue", ptr %value, i32 0, i32 0
  store i64 %value.coerce, ptr %coerce.dive, align 8
  store ptr %this, ptr %this.addr, align 8
  %this1 = load ptr, ptr %this.addr, align 8
  %status_ = getelementptr inbounds %"class.hermes::vm::CallResult", ptr %this1, i32 0, i32 0
  store i32 1, ptr %status_, align 8
  %storage_2 = getelementptr inbounds %"class.hermes::vm::CallResult", ptr %this1, i32 0, i32 1
  call void @llvm.memcpy.p0.p0.i64(ptr align 8 %storage_2, ptr align 8 %value, i64 8, i1 false)
  ret void
}

; Function Attrs: mustprogress nounwind uwtable
define linkonce_odr hidden i64 @_ZN6hermes2vm11HermesValue15encodeBoolValueEb(i1 noundef zeroext %val) #0 comdat align 2 {
entry:
  %retval = alloca %"class.hermes::vm::HermesValue", align 8
  %val.addr = alloca i8, align 1
  %frombool = zext i1 %val to i8
  store i8 %frombool, ptr %val.addr, align 1
  %0 = load i8, ptr %val.addr, align 1
  %tobool = trunc i8 %0 to i1
  %conv = zext i1 %tobool to i64
  call void @_ZN6hermes2vm11HermesValueC2EmNS1_4ETagE(ptr noundef nonnull align 8 dereferenceable(8) %retval, i64 noundef %conv, i64 noundef -10)
  %coerce.dive = getelementptr inbounds %"class.hermes::vm::HermesValue", ptr %retval, i32 0, i32 0
  %1 = load i64, ptr %coerce.dive, align 8
  ret i64 %1
}

; Function Attrs: mustprogress nounwind uwtable
define linkonce_odr hidden noundef zeroext i1 @_ZNK6hermes2vm10CallResultIbLNS0_6detail20CallResultSpecializeE1EEdeEv(ptr noundef nonnull align 4 dereferenceable(2) %this) #0 comdat align 2 {
entry:
  %this.addr = alloca ptr, align 8
  store ptr %this, ptr %this.addr, align 8
  %this1 = load ptr, ptr %this.addr, align 8
  %call = call noundef zeroext i1 @_ZNK6hermes2vm10CallResultIbLNS0_6detail20CallResultSpecializeE1EE8getValueEv(ptr noundef nonnull align 4 dereferenceable(2) %this1)
  ret i1 %call
}

; Function Attrs: mustprogress nounwind uwtable
define linkonce_odr hidden void @_ZN6hermes2vm10CallResultINS0_11HermesValueELNS0_6detail20CallResultSpecializeE2EEC2ENS0_15ExecutionStatusE(ptr noundef nonnull align 8 dereferenceable(16) %this, i32 noundef %status) unnamed_addr #0 comdat align 2 {
entry:
  %this.addr = alloca ptr, align 8
  %status.addr = alloca i32, align 4
  store ptr %this, ptr %this.addr, align 8
  store i32 %status, ptr %status.addr, align 4
  %this1 = load ptr, ptr %this.addr, align 8
  %status_ = getelementptr inbounds %"class.hermes::vm::CallResult", ptr %this1, i32 0, i32 0
  %0 = load i32, ptr %status.addr, align 4
  store i32 %0, ptr %status_, align 8
  ret void
}

; Function Attrs: mustprogress nounwind uwtable
define linkonce_odr hidden noundef zeroext i1 @_ZN6hermes2vmeqIbEEbRKNS0_10CallResultIT_Xsr6detail23GetCallResultSpecializeIS3_EE5valueEEENS0_15ExecutionStatusE(ptr noundef nonnull align 4 dereferenceable(2) %lhs, i32 noundef %rhs) #0 comdat {
entry:
  %lhs.addr = alloca ptr, align 8
  %rhs.addr = alloca i32, align 4
  store ptr %lhs, ptr %lhs.addr, align 8
  store i32 %rhs, ptr %rhs.addr, align 4
  %0 = load ptr, ptr %lhs.addr, align 8
  %call = call noundef i32 @_ZNK6hermes2vm10CallResultIbLNS0_6detail20CallResultSpecializeE1EE9getStatusEv(ptr noundef nonnull align 4 dereferenceable(2) %0)
  %1 = load i32, ptr %rhs.addr, align 4
  %cmp = icmp eq i32 %call, %1
  ret i1 %cmp
}

; Function Attrs: mustprogress nounwind uwtable
define linkonce_odr hidden ptr @_ZNK6hermes2vm10NativeArgs12getArgHandleEj(ptr noundef nonnull align 8 dereferenceable(24) %this, i32 noundef %index) #0 comdat align 2 {
entry:
  %retval = alloca %"class.hermes::vm::Handle.200", align 8
  %this.addr = alloca ptr, align 8
  %index.addr = alloca i32, align 4
  %ref.tmp = alloca %"class.std::reverse_iterator", align 8
  store ptr %this, ptr %this.addr, align 8
  store i32 %index, ptr %index.addr, align 4
  %this1 = load ptr, ptr %this.addr, align 8
  %0 = load i32, ptr %index.addr, align 4
  %argCount_ = getelementptr inbounds %"class.hermes::vm::NativeArgs", ptr %this1, i32 0, i32 1
  %1 = load i32, ptr %argCount_, align 8
  %cmp = icmp ult i32 %0, %1
  br i1 %cmp, label %cond.true, label %cond.false

cond.true:                                        ; preds = %entry
  call void @_ZNK6hermes2vm10NativeArgs5beginEv(ptr sret(%"class.std::reverse_iterator") align 8 %ref.tmp, ptr noundef nonnull align 8 dereferenceable(24) %this1)
  %2 = load i32, ptr %index.addr, align 4
  %conv = zext i32 %2 to i64
  %call = call noundef nonnull align 8 dereferenceable(8) ptr @_ZNKSt16reverse_iteratorIPKN6hermes2vm17PinnedHermesValueEEixEl(ptr noundef nonnull align 8 dereferenceable(8) %ref.tmp, i64 noundef %conv)
  call void @_ZN6hermes2vm6HandleINS0_11HermesValueEEC2EPKNS0_17PinnedHermesValueE(ptr noundef nonnull align 8 dereferenceable(8) %retval, ptr noundef %call)
  br label %cond.end

cond.false:                                       ; preds = %entry
  %call2 = call ptr @_ZN6hermes2vm15HandleRootOwner17getUndefinedValueEv()
  %coerce.dive = getelementptr inbounds %"class.hermes::vm::Handle.200", ptr %retval, i32 0, i32 0
  %coerce.dive3 = getelementptr inbounds %"class.hermes::vm::HandleBase", ptr %coerce.dive, i32 0, i32 0
  store ptr %call2, ptr %coerce.dive3, align 8
  br label %cond.end

cond.end:                                         ; preds = %cond.false, %cond.true
  %coerce.dive4 = getelementptr inbounds %"class.hermes::vm::Handle.200", ptr %retval, i32 0, i32 0
  %coerce.dive5 = getelementptr inbounds %"class.hermes::vm::HandleBase", ptr %coerce.dive4, i32 0, i32 0
  %3 = load ptr, ptr %coerce.dive5, align 8
  ret ptr %3
}

; Function Attrs: mustprogress nounwind uwtable
define linkonce_odr hidden ptr @_ZNK6hermes2vm10NativeArgs13getThisHandleEv(ptr noundef nonnull align 8 dereferenceable(24) %this) #0 comdat align 2 {
entry:
  %retval = alloca %"class.hermes::vm::Handle.200", align 8
  %this.addr = alloca ptr, align 8
  store ptr %this, ptr %this.addr, align 8
  %this1 = load ptr, ptr %this.addr, align 8
  %call = call noundef nonnull align 8 dereferenceable(8) ptr @_ZNK6hermes2vm10NativeArgs10getThisArgEv(ptr noundef nonnull align 8 dereferenceable(24) %this1)
  call void @_ZN6hermes2vm6HandleINS0_11HermesValueEEC2EPKNS0_17PinnedHermesValueE(ptr noundef nonnull align 8 dereferenceable(8) %retval, ptr noundef %call)
  %coerce.dive = getelementptr inbounds %"class.hermes::vm::Handle.200", ptr %retval, i32 0, i32 0
  %coerce.dive2 = getelementptr inbounds %"class.hermes::vm::HandleBase", ptr %coerce.dive, i32 0, i32 0
  %0 = load ptr, ptr %coerce.dive2, align 8
  ret ptr %0
}

; Function Attrs: mustprogress nounwind uwtable
define hidden { i32, i64 } @_ZN6hermes2vm34functionPrototypeSymbolHasInstanceEPvRNS0_7RuntimeENS0_10NativeArgsE(ptr noundef %0, ptr noundef nonnull align 8 dereferenceable(9832) %runtime, ptr noundef %args) #0 {
entry:
  %retval = alloca %"class.hermes::vm::CallResult", align 8
  %.addr = alloca ptr, align 8
  %runtime.addr = alloca ptr, align 8
  %args.indirect_addr = alloca ptr, align 8
  %F = alloca %"class.hermes::vm::Handle.200", align 8
  %result = alloca %"class.hermes::vm::CallResult.201", align 4
  %agg.tmp = alloca %"class.hermes::vm::Handle.200", align 8
  %agg.tmp2 = alloca %"class.hermes::vm::Handle.200", align 8
  %agg.tmp12 = alloca %"class.hermes::vm::HermesValue", align 8
  store ptr %0, ptr %.addr, align 8
  store ptr %runtime, ptr %runtime.addr, align 8
  store ptr %args, ptr %args.indirect_addr, align 8
  %call = call ptr @_ZNK6hermes2vm10NativeArgs13getThisHandleEv(ptr noundef nonnull align 8 dereferenceable(24) %args)
  %coerce.dive = getelementptr inbounds %"class.hermes::vm::Handle.200", ptr %F, i32 0, i32 0
  %coerce.dive1 = getelementptr inbounds %"class.hermes::vm::HandleBase", ptr %coerce.dive, i32 0, i32 0
  store ptr %call, ptr %coerce.dive1, align 8
  %1 = load ptr, ptr %runtime.addr, align 8
  call void @llvm.memcpy.p0.p0.i64(ptr align 8 %agg.tmp, ptr align 8 %F, i64 8, i1 false)
  %call3 = call ptr @_ZNK6hermes2vm10NativeArgs12getArgHandleEj(ptr noundef nonnull align 8 dereferenceable(24) %args, i32 noundef 0)
  %coerce.dive4 = getelementptr inbounds %"class.hermes::vm::Handle.200", ptr %agg.tmp2, i32 0, i32 0
  %coerce.dive5 = getelementptr inbounds %"class.hermes::vm::HandleBase", ptr %coerce.dive4, i32 0, i32 0
  store ptr %call3, ptr %coerce.dive5, align 8
  %coerce.dive6 = getelementptr inbounds %"class.hermes::vm::Handle.200", ptr %agg.tmp, i32 0, i32 0
  %coerce.dive7 = getelementptr inbounds %"class.hermes::vm::HandleBase", ptr %coerce.dive6, i32 0, i32 0
  %2 = load ptr, ptr %coerce.dive7, align 8
  %coerce.dive8 = getelementptr inbounds %"class.hermes::vm::Handle.200", ptr %agg.tmp2, i32 0, i32 0
  %coerce.dive9 = getelementptr inbounds %"class.hermes::vm::HandleBase", ptr %coerce.dive8, i32 0, i32 0
  %3 = load ptr, ptr %coerce.dive9, align 8
  %call10 = call i32 @_ZN6hermes2vm19ordinaryHasInstanceERNS0_7RuntimeENS0_6HandleINS0_11HermesValueEEES5_(ptr noundef nonnull align 8 dereferenceable(9832) %1, ptr %2, ptr %3)
  store i32 %call10, ptr %result, align 4
  %call11 = call noundef zeroext i1 @_ZN6hermes2vmeqIbEEbRKNS0_10CallResultIT_Xsr6detail23GetCallResultSpecializeIS3_EE5valueEEENS0_15ExecutionStatusE(ptr noundef nonnull align 4 dereferenceable(2) %result, i32 noundef 0)
  br i1 %call11, label %if.then, label %if.end

if.then:                                          ; preds = %entry
  call void @_ZN6hermes2vm10CallResultINS0_11HermesValueELNS0_6detail20CallResultSpecializeE2EEC2ENS0_15ExecutionStatusE(ptr noundef nonnull align 8 dereferenceable(16) %retval, i32 noundef 0)
  br label %return

if.end:                                           ; preds = %entry
  %call13 = call noundef zeroext i1 @_ZNK6hermes2vm10CallResultIbLNS0_6detail20CallResultSpecializeE1EEdeEv(ptr noundef nonnull align 4 dereferenceable(2) %result)
  %call14 = call i64 @_ZN6hermes2vm11HermesValue15encodeBoolValueEb(i1 noundef zeroext %call13)
  %coerce.dive15 = getelementptr inbounds %"class.hermes::vm::HermesValue", ptr %agg.tmp12, i32 0, i32 0
  store i64 %call14, ptr %coerce.dive15, align 8
  %coerce.dive16 = getelementptr inbounds %"class.hermes::vm::HermesValue", ptr %agg.tmp12, i32 0, i32 0
  %4 = load i64, ptr %coerce.dive16, align 8
  call void @_ZN6hermes2vm10CallResultINS0_11HermesValueELNS0_6detail20CallResultSpecializeE2EEC2ES2_(ptr noundef nonnull align 8 dereferenceable(16) %retval, i64 %4)
  br label %return

return:                                           ; preds = %if.end, %if.then
  %5 = load { i32, i64 }, ptr %retval, align 8
  ret { i32, i64 } %5
}