; Function Attrs: mustprogress nounwind uwtable
define hidden { i32, i64 } @_ZN6hermes2vm34functionPrototypeSymbolHasInstanceEPvRNS0_7RuntimeENS0_10NativeArgsE(ptr readnone captures(none) %0, ptr noundef nonnull align 8 dereferenceable(9832) %runtime, ptr noundef readonly captures(none) %args) #0 {
entry:
  %1 = load ptr, ptr %args, align 8, !noalias !32
  %argCount_.i = getelementptr inbounds nuw i8, ptr %args, i64 8
  %2 = load i32, ptr %argCount_.i, align 8
  %cmp.i.not = icmp eq i32 %2, 0
  %incdec.ptr.i.i.i = getelementptr inbounds i8, ptr %1, i64 -8
  %retval.sroa.0.0.i = select i1 %cmp.i.not, ptr @_ZN6hermes2vm15HandleRootOwner15undefinedValue_E, ptr %incdec.ptr.i.i.i
  %call10 = tail call i32 @_ZN6hermes2vm19ordinaryHasInstanceERNS0_7RuntimeENS0_6HandleINS0_11HermesValueEEES5_(ptr noundef nonnull align 8 dereferenceable(9832) %runtime, ptr %1, ptr nonnull %retval.sroa.0.0.i) #13
  %bf.cast.i.i4.mask = and i32 %call10, 255
  %cmp.i1 = icmp ne i32 %bf.cast.i.i4.mask, 0
  %3 = lshr i32 %call10, 8
  %.lobit = and i32 %3, 1
  %conv.i = zext nneg i32 %.lobit to i64
  %or.i.i = or disjoint i64 %conv.i, -1407374883553280
  %retval.sroa.0.0 = zext i1 %cmp.i1 to i32
  %retval.sroa.3.0 = select i1 %cmp.i1, i64 %or.i.i, i64 undef
  %.fca.0.insert = insertvalue { i32, i64 } poison, i32 %retval.sroa.0.0, 0
  %.fca.1.insert = insertvalue { i32, i64 } %.fca.0.insert, i64 %retval.sroa.3.0, 1
  ret { i32, i64 } %.fca.1.insert
}